target datalayout = "e-m:e-p270:32:32-p271:32:32-p272:64:64-i64:64-i128:128-f80:128-n8:16:32:64-S128"
target triple = "x86_64-pc-linux-gnu"

; Function Attrs: mustprogress nounwind uwtable
define noundef i32 @_ZN6icu_7712PropNameData12findPropertyEi(i32 noundef %0) #3 align 2 {
  %2 = alloca i32, align 4
  %3 = alloca i32, align 4
  %4 = alloca i32, align 4
  %5 = alloca i32, align 4
  %6 = alloca i32, align 4
  %7 = alloca i32, align 4
  %8 = alloca i32, align 4
  store i32 %0, ptr %3, align 4, !tbaa !8
  call void @llvm.lifetime.start.p0(i64 4, ptr %4) #7
  store i32 1, ptr %4, align 4, !tbaa !8
  call void @llvm.lifetime.start.p0(i64 4, ptr %5) #7
  %9 = load i32, ptr @_ZN6icu_7712PropNameData9valueMapsE, align 16, !tbaa !8
  store i32 %9, ptr %5, align 4, !tbaa !8
  br label %10

10:                                               ; preds = %51, %1
  %11 = load i32, ptr %5, align 4, !tbaa !8
  %12 = icmp sgt i32 %11, 0
  br i1 %12, label %14, label %13

13:                                               ; preds = %10
  store i32 2, ptr %6, align 4
  br label %54

14:                                               ; preds = %10
  call void @llvm.lifetime.start.p0(i64 4, ptr %7) #7
  %15 = load i32, ptr %4, align 4, !tbaa !8
  %16 = sext i32 %15 to i64
  %17 = getelementptr inbounds [1494 x i32], ptr @_ZN6icu_7712PropNameData9valueMapsE, i64 0, i64 %16
  %18 = load i32, ptr %17, align 4, !tbaa !8
  store i32 %18, ptr %7, align 4, !tbaa !8
  call void @llvm.lifetime.start.p0(i64 4, ptr %8) #7
  %19 = load i32, ptr %4, align 4, !tbaa !8
  %20 = add nsw i32 %19, 1
  %21 = sext i32 %20 to i64
  %22 = getelementptr inbounds [1494 x i32], ptr @_ZN6icu_7712PropNameData9valueMapsE, i64 0, i64 %21
  %23 = load i32, ptr %22, align 4, !tbaa !8
  store i32 %23, ptr %8, align 4, !tbaa !8
  %24 = load i32, ptr %4, align 4, !tbaa !8
  %25 = add nsw i32 %24, 2
  store i32 %25, ptr %4, align 4, !tbaa !8
  %26 = load i32, ptr %3, align 4, !tbaa !8
  %27 = load i32, ptr %7, align 4, !tbaa !8
  %28 = icmp slt i32 %26, %27
  br i1 %28, label %29, label %30

29:                                               ; preds = %14
  store i32 2, ptr %6, align 4
  br label %48

30:                                               ; preds = %14
  %31 = load i32, ptr %3, align 4, !tbaa !8
  %32 = load i32, ptr %8, align 4, !tbaa !8
  %33 = icmp slt i32 %31, %32
  br i1 %33, label %34, label %41

34:                                               ; preds = %30
  %35 = load i32, ptr %4, align 4, !tbaa !8
  %36 = load i32, ptr %3, align 4, !tbaa !8
  %37 = load i32, ptr %7, align 4, !tbaa !8
  %38 = sub nsw i32 %36, %37
  %39 = mul nsw i32 %38, 2
  %40 = add nsw i32 %35, %39
  store i32 %40, ptr %2, align 4
  store i32 1, ptr %6, align 4
  br label %48

41:                                               ; preds = %30
  %42 = load i32, ptr %8, align 4, !tbaa !8
  %43 = load i32, ptr %7, align 4, !tbaa !8
  %44 = sub nsw i32 %42, %43
  %45 = mul nsw i32 %44, 2
  %46 = load i32, ptr %4, align 4, !tbaa !8
  %47 = add nsw i32 %46, %45
  store i32 %47, ptr %4, align 4, !tbaa !8
  store i32 0, ptr %6, align 4
  br label %48

48:                                               ; preds = %41, %34, %29
  call void @llvm.lifetime.end.p0(i64 4, ptr %8) #7
  call void @llvm.lifetime.end.p0(i64 4, ptr %7) #7
  %49 = load i32, ptr %6, align 4
  switch i32 %49, label %54 [
    i32 0, label %50
  ]

50:                                               ; preds = %48
  br label %51

51:                                               ; preds = %50
  %52 = load i32, ptr %5, align 4, !tbaa !8
  %53 = add nsw i32 %52, -1
  store i32 %53, ptr %5, align 4, !tbaa !8
  br label %10, !llvm.loop !16

54:                                               ; preds = %48, %13
  call void @llvm.lifetime.end.p0(i64 4, ptr %5) #7
  %55 = load i32, ptr %6, align 4
  switch i32 %55, label %57 [
    i32 2, label %56
  ]

56:                                               ; preds = %54
  store i32 0, ptr %2, align 4
  store i32 1, ptr %6, align 4
  br label %57

57:                                               ; preds = %56, %54
  call void @llvm.lifetime.end.p0(i64 4, ptr %4) #7
  %58 = load i32, ptr %2, align 4
  ret i32 %58
}

; Function Attrs: mustprogress uwtable
define noundef i32 @_ZN6icu_7712PropNameData20getPropertyValueEnumEiPKc(i32 noundef %0, ptr noundef %1) #0 align 2 {
  %3 = alloca i32, align 4
  %4 = alloca i32, align 4
  %5 = alloca ptr, align 8
  %6 = alloca i32, align 4
  %7 = alloca i32, align 4
  store i32 %0, ptr %4, align 4, !tbaa !8
  store ptr %1, ptr %5, align 8, !tbaa !3
  call void @llvm.lifetime.start.p0(i64 4, ptr %6) #7
  %8 = load i32, ptr %4, align 4, !tbaa !8
  %9 = call noundef i32 @_ZN6icu_7712PropNameData12findPropertyEi(i32 noundef %8)
  store i32 %9, ptr %6, align 4, !tbaa !8
  %10 = load i32, ptr %6, align 4, !tbaa !8
  %11 = icmp eq i32 %10, 0
  br i1 %11, label %12, label %13

12:                                               ; preds = %2
  store i32 -1, ptr %3, align 4
  store i32 1, ptr %7, align 4
  br label %29

13:                                               ; preds = %2
  %14 = load i32, ptr %6, align 4, !tbaa !8
  %15 = add nsw i32 %14, 1
  %16 = sext i32 %15 to i64
  %17 = getelementptr inbounds [1494 x i32], ptr @_ZN6icu_7712PropNameData9valueMapsE, i64 0, i64 %16
  %18 = load i32, ptr %17, align 4, !tbaa !8
  store i32 %18, ptr %6, align 4, !tbaa !8
  %19 = load i32, ptr %6, align 4, !tbaa !8
  %20 = icmp eq i32 %19, 0
  br i1 %20, label %21, label %22

21:                                               ; preds = %13
  store i32 -1, ptr %3, align 4
  store i32 1, ptr %7, align 4
  br label %29

22:                                               ; preds = %13
  %23 = load i32, ptr %6, align 4, !tbaa !8
  %24 = sext i32 %23 to i64
  %25 = getelementptr inbounds [1494 x i32], ptr @_ZN6icu_7712PropNameData9valueMapsE, i64 0, i64 %24
  %26 = load i32, ptr %25, align 4, !tbaa !8
  %27 = load ptr, ptr %5, align 8, !tbaa !3
  %28 = call noundef i32 @_ZN6icu_7712PropNameData22getPropertyOrValueEnumEiPKc(i32 noundef %26, ptr noundef %27)
  store i32 %28, ptr %3, align 4
  store i32 1, ptr %7, align 4
  br label %29

29:                                               ; preds = %22, %21, %12
  call void @llvm.lifetime.end.p0(i64 4, ptr %6) #7
  %30 = load i32, ptr %3, align 4
  ret i32 %30
}