; Function Attrs: mustprogress uwtable
define noundef i32 @_ZN6icu_7712PropNameData20getPropertyValueEnumEiPKc(i32 noundef %0, ptr noundef %1) local_unnamed_addr #0 align 2 {
  br label %3

3:                                                ; preds = %15, %2
  %.01941.i = phi i32 [ 1, %2 ], [ %18, %15 ]
  %.02340.i = phi i32 [ 6, %2 ], [ %19, %15 ]
  %4 = sext i32 %.01941.i to i64
  %5 = getelementptr inbounds [1494 x i32], ptr @_ZN6icu_7712PropNameData9valueMapsE, i64 0, i64 %4
  %6 = load i32, ptr %5, align 4, !tbaa !10
  %7 = add nsw i32 %.01941.i, 1
  %8 = sext i32 %7 to i64
  %9 = getelementptr inbounds [1494 x i32], ptr @_ZN6icu_7712PropNameData9valueMapsE, i64 0, i64 %8
  %10 = load i32, ptr %9, align 4, !tbaa !10
  %11 = add nsw i32 %.01941.i, 2
  %12 = icmp slt i32 %0, %6
  br i1 %12, label %_ZN6icu_7712PropNameData12findPropertyEi.exit.thread, label %13

13:                                               ; preds = %3
  %14 = icmp slt i32 %0, %10
  br i1 %14, label %_ZN6icu_7712PropNameData12findPropertyEi.exit, label %15

15:                                               ; preds = %13
  %16 = sub nsw i32 %10, %6
  %17 = shl nsw i32 %16, 1
  %18 = add nsw i32 %17, %11
  %19 = add nsw i32 %.02340.i, -1
  %20 = icmp ugt i32 %.02340.i, 1
  br i1 %20, label %3, label %_ZN6icu_7712PropNameData12findPropertyEi.exit.thread, !llvm.loop !12

_ZN6icu_7712PropNameData12findPropertyEi.exit:    ; preds = %13
  %21 = sub nsw i32 %0, %6
  %22 = shl nsw i32 %21, 1
  %23 = add nsw i32 %22, %11
  %24 = icmp eq i32 %23, 0
  br i1 %24, label %_ZN6icu_7712PropNameData12findPropertyEi.exit.thread, label %25

25:                                               ; preds = %_ZN6icu_7712PropNameData12findPropertyEi.exit
  %26 = add nsw i32 %23, 1
  %27 = sext i32 %26 to i64
  %28 = getelementptr inbounds [1494 x i32], ptr @_ZN6icu_7712PropNameData9valueMapsE, i64 0, i64 %27
  %29 = load i32, ptr %28, align 4, !tbaa !10
  %30 = icmp eq i32 %29, 0
  br i1 %30, label %_ZN6icu_7712PropNameData12findPropertyEi.exit.thread, label %31

31:                                               ; preds = %25
  %32 = sext i32 %29 to i64
  %33 = getelementptr inbounds [1494 x i32], ptr @_ZN6icu_7712PropNameData9valueMapsE, i64 0, i64 %32
  %34 = load i32, ptr %33, align 4, !tbaa !10
  %35 = tail call noundef i32 @_ZN6icu_7712PropNameData22getPropertyOrValueEnumEiPKc(i32 noundef %34, ptr noundef %1)
  br label %_ZN6icu_7712PropNameData12findPropertyEi.exit.thread

_ZN6icu_7712PropNameData12findPropertyEi.exit.thread: ; preds = %3, %15, %25, %_ZN6icu_7712PropNameData12findPropertyEi.exit, %31
  %.0 = phi i32 [ %35, %31 ], [ -1, %_ZN6icu_7712PropNameData12findPropertyEi.exit ], [ -1, %25 ], [ -1, %15 ], [ -1, %3 ]
  ret i32 %.0
}